target datalayout = "e-m:e-p270:32:32-p271:32:32-p272:64:64-i64:64-i128:128-f80:128-n8:16:32:64-S128"
target triple = "x86_64-pc-linux-gnu"

%struct.ossl_store_info_st = type { i32, %union.anon.3 }
%union.anon.3 = type { %struct.anon.4 }
%struct.anon.4 = type { ptr, ptr }

@.str.2 = private unnamed_addr constant [36 x i8] c"../openssl/crypto/store/store_lib.c\00", align 1
@__func__.OSSL_STORE_INFO_get1_PKEY = private unnamed_addr constant [26 x i8] c"OSSL_STORE_INFO_get1_PKEY\00", align 1

; Function Attrs: nounwind uwtable
define ptr @OSSL_STORE_INFO_get1_PKEY(ptr noundef %0) #0 {
  %2 = alloca ptr, align 8
  %3 = alloca ptr, align 8
  store ptr %0, ptr %3, align 8, !tbaa !77
  %4 = load ptr, ptr %3, align 8, !tbaa !77
  %5 = getelementptr inbounds nuw %struct.ossl_store_info_st, ptr %4, i32 0, i32 0
  %6 = load i32, ptr %5, align 8, !tbaa !88
  %7 = icmp eq i32 %6, 4
  br i1 %7, label %8, label %16

8:                                                ; preds = %1
  %9 = load ptr, ptr %3, align 8, !tbaa !77
  %10 = getelementptr inbounds nuw %struct.ossl_store_info_st, ptr %9, i32 0, i32 1
  %11 = load ptr, ptr %10, align 8, !tbaa !25
  %12 = call i32 @EVP_PKEY_up_ref(ptr noundef %11)
  %13 = load ptr, ptr %3, align 8, !tbaa !77
  %14 = getelementptr inbounds nuw %struct.ossl_store_info_st, ptr %13, i32 0, i32 1
  %15 = load ptr, ptr %14, align 8, !tbaa !25
  store ptr %15, ptr %2, align 8
  br label %17

16:                                               ; preds = %1
  call void @ERR_new()
  call void @ERR_set_debug(ptr noundef @.str.2, i32 noundef 782, ptr noundef @__func__.OSSL_STORE_INFO_get1_PKEY)
  call void (i32, i32, ptr, ...) @ERR_set_error(i32 noundef 44, i32 noundef 102, ptr noundef null)
  store ptr null, ptr %2, align 8
  br label %17

17:                                               ; preds = %16, %8
  %18 = load ptr, ptr %2, align 8
  ret ptr %18
}